; Function Attrs: nounwind uwtable
define internal fastcc void @split_to_stringlist(ptr noundef %0, ptr noundef captures(none) %1) unnamed_addr #0 {
  %3 = alloca ptr, align 8
  call void @llvm.lifetime.start.p0(i64 8, ptr nonnull %3) #22
  %4 = tail call ptr @pg_strdup(ptr noundef %0) #22
  store ptr %4, ptr %3, align 8
  %5 = call ptr @strsep(ptr noundef nonnull %3, ptr noundef nonnull @.str.39) #22
  %.not1 = icmp eq ptr %5, null
  br i1 %.not1, label %._crit_edge, label %.lr.ph

.lr.ph:                                           ; preds = %2, %add_stringlist_item.exit
  %6 = phi ptr [ %17, %add_stringlist_item.exit ], [ %5, %2 ]
  %7 = call ptr @pg_malloc(i64 noundef 16) #22
  %8 = call ptr @pg_strdup(ptr noundef nonnull %6) #22
  store ptr %8, ptr %7, align 8
  %9 = getelementptr inbounds nuw i8, ptr %7, i64 8
  store ptr null, ptr %9, align 8
  %10 = load ptr, ptr %1, align 8
  %11 = icmp eq ptr %10, null
  br i1 %11, label %12, label %.preheader.i

12:                                               ; preds = %.lr.ph
  store ptr %7, ptr %1, align 8
  br label %add_stringlist_item.exit

.preheader.i:                                     ; preds = %.lr.ph, %.preheader.i
  %.0.i = phi ptr [ %14, %.preheader.i ], [ %10, %.lr.ph ]
  %13 = getelementptr inbounds nuw i8, ptr %.0.i, i64 8
  %14 = load ptr, ptr %13, align 8
  %.not.i = icmp eq ptr %14, null
  br i1 %.not.i, label %15, label %.preheader.i, !llvm.loop !3

15:                                               ; preds = %.preheader.i
  %16 = getelementptr inbounds nuw i8, ptr %.0.i, i64 8
  store ptr %7, ptr %16, align 8
  br label %add_stringlist_item.exit

add_stringlist_item.exit:                         ; preds = %12, %15
  %17 = call ptr @strsep(ptr noundef nonnull %3, ptr noundef nonnull @.str.39) #22
  %.not = icmp eq ptr %17, null
  br i1 %.not, label %._crit_edge, label %.lr.ph, !llvm.loop !32

._crit_edge:                                      ; preds = %add_stringlist_item.exit, %2
  call void @free(ptr noundef %4) #22
  call void @llvm.lifetime.end.p0(i64 8, ptr nonnull %3) #22
  ret void
}